Certificate:
    Data:
        Version: 3 (0x2)
        Serial Number:
            4b:d0:63:6f:d8:07:ff:a7:68:61:ff:d9
        Signature Algorithm: sha256WithRSAEncryption
        Issuer: CN = JLint Sub CA, O = MTG, C = DE
        Validity
            Not Before: Mar 27 09:10:06 2022 GMT
            Not After : Mar 27 10:10:06 2023 GMT
        Subject: CN = All Times UTC, O = MTG, C = DE
        Subject Public Key Info:
            Public Key Algorithm: rsaEncryption
                RSA Public-Key: (2048 bit)
                Modulus:
                    00:b8:09:c6:90:a2:45:89:90:a3:f5:42:d5:80:e1:
                    d2:18:73:b9:11:30:1a:8a:7d:e6:00:ab:95:b7:74:
                    3a:0b:9e:b1:0c:3d:e2:61:83:04:78:09:b5:94:b6:
                    a8:27:5f:93:51:29:29:41:1e:48:d6:48:1a:e2:d6:
                    36:6f:d9:bc:ce:e0:1a:0c:eb:af:4f:f0:bc:7b:e6:
                    30:0a:6e:58:d0:c0:3d:4d:62:22:01:e2:7b:10:cb:
                    a1:91:96:8d:ab:c6:5b:ed:66:2e:25:ee:03:0e:86:
                    05:72:89:2e:8b:45:f2:67:ab:ed:46:35:16:5a:b9:
                    d9:c6:81:c7:06:0d:c5:32:88:93:3a:de:2a:f6:a0:
                    be:cd:b7:83:7c:ca:13:2a:5c:f6:18:b7:5b:ae:d5:
                    6e:61:be:f5:94:59:4e:ad:71:09:1b:c0:d9:93:c7:
                    b9:28:09:93:8d:d2:bc:85:66:52:47:10:e9:cc:08:
                    57:b9:ff:ae:c3:76:04:42:c2:5f:b5:b9:c6:f4:3c:
                    90:ac:18:e2:68:4c:f8:34:f7:47:03:90:97:cd:e3:
                    cc:9d:79:e6:39:b5:f1:ee:a2:6c:62:13:b2:a8:a2:
                    b7:ac:5c:b7:07:55:eb:d8:e3:a2:90:2e:46:f4:b7:
                    cc:d1:05:c4:58:c0:90:61:a9:52:0a:69:d7:fd:0d:
                    9d:6d
                Exponent: 65537 (0x10001)
        X509v3 extensions:
            X509v3 Authority Key Identifier: 
                keyid:A9:1A:F1:CD:D4:EE:E9:AB:19:2F:5F:83:1B:B9:55:6D:08:C1:30:DE

            X509v3 Subject Key Identifier: 
                0C:DB:B3:90:CE:A9:9C:4C:13:60:30:75:E3:FC:1D:06:BB:5F:30:B0
    Signature Algorithm: sha256WithRSAEncryption
         a2:fe:e5:00:e5:a3:a0:20:b2:2a:c4:f5:50:3a:8c:a3:3f:ee:
         3b:37:58:ac:7d:e8:8b:0d:5a:9c:91:86:93:f2:26:7a:28:89:
         3f:87:d5:1b:24:1b:b5:e6:33:b6:d5:93:1c:9d:b4:db:ad:2e:
         ca:a2:22:38:1c:00:68:2d:d8:f8:5c:a6:34:77:d8:54:2f:cd:
         5a:72:68:de:4f:58:20:e8:94:c5:26:0b:9c:a5:58:e0:c8:81:
         aa:0e:31:ee:eb:f6:3e:50:fb:a9:ba:e6:4c:2b:a8:1d:7c:e9:
         fc:27:36:94:b3:1d:7c:59:2a:e2:a0:20:0e:15:8b:35:24:42:
         3d:8f:84:b7:85:1d:eb:01:0b:b5:02:0c:fb:bd:75:93:ce:24:
         6a:f7:21:74:c3:68:db:36:a5:a7:22:d6:48:6c:dd:09:04:b9:
         5c:c0:7c:65:bb:dd:d1:2a:9f:9d:3f:5e:9f:da:bc:74:f1:6e:
         9e:46:83:a7:bf:fd:6a:9d:46:1a:73:e7:e2:a6:3f:64:b5:b7:
         a0:55:5b:bd:b2:04:8f:04:cd:be:7b:f3:fa:9f:2b:d0:1f:c4:
         c0:c9:89:03:fb:81:4f:cc:a8:eb:88:63:ee:4b:9e:75:19:1d:
         5c:96:36:e1:88:59:ba:a2:17:b0:c8:81:18:3d:81:7d:1b:70:
         fd:76:5f:f3
-----BEGIN CERTIFICATE-----
MIIDLTCCAhWgAwIBAgIMS9Bjb9gH/6doYf/ZMA0GCSqGSIb3DQEBCwUAMDIxFTAT
BgNVBAMMDEpMaW50IFN1YiBDQTEMMAoGA1UECgwDTVRHMQswCQYDVQQGEwJERTAe
Fw0yMjAzMjcwOTEwMDZaFw0yMzAzMjcxMDEwMDZaMDMxFjAUBgNVBAMMDUFsbCBU
aW1lcyBVVEMxDDAKBgNVBAoMA01URzELMAkGA1UEBhMCREUwggEiMA0GCSqGSIb3
DQEBAQUAA4IBDwAwggEKAoIBAQC4CcaQokWJkKP1QtWA4dIYc7kRMBqKfeYAq5W3
dDoLnrEMPeJhgwR4CbWUtqgnX5NRKSlBHkjWSBri1jZv2bzO4BoM669P8Lx75jAK
bljQwD1NYiIB4nsQy6GRlo2rxlvtZi4l7gMOhgVyiS6LRfJnq+1GNRZaudnGgccG
DcUyiJM63ir2oL7Nt4N8yhMqXPYYt1uu1W5hvvWUWU6tcQkbwNmTx7koCZON0ryF
ZlJHEOnMCFe5/67DdgRCwl+1ucb0PJCsGOJoTPg090cDkJfN48ydeeY5tfHuomxi
E7KooresXLcHVevY46KQLkb0t8zRBcRYwJBhqVIKadf9DZ1tAgMBAAGjQjBAMB8G
A1UdIwQYMBaAFKka8c3U7umrGS9fgxu5VW0IwTDeMB0GA1UdDgQWBBQM27OQzqmc
TBNgMHXj/B0Gu18wsDANBgkqhkiG9w0BAQsFAAOCAQEAov7lAOWjoCCyKsT1UDqM
oz/uOzdYrH3oiw1anJGGk/ImeiiJP4fVGyQbteYzttWTHJ20260uyqIiOBwAaC3Y
+FymNHfYVC/NWnJo3k9YIOiUxSYLnKVY4MiBqg4x7uv2PlD7qbrmTCuoHXzp/Cc2
lLMdfFkq4qAgDhWLNSRCPY+Et4Ud6wELtQIM+711k84kavchdMNo2zalpyLWSGzd
CQS5XMB8Zbvd0SqfnT9en9q8dPFunkaDp7/9ap1GGnPn4qY/ZLW3oFVbvbIEjwTN
vnvz+p8r0B/EwMmJA/uBT8yo64hj7kuedRkdXJY24YhZuqIXsMiBGD2BfRtw/XZf
8w==
-----END CERTIFICATE-----
