Certificate:
    Data:
        Version: 3 (0x2)
        Serial Number:
            8e:c6:43:05:d1:50:43:26:43:0a:c1:f5
        Signature Algorithm: sha256WithRSAEncryption
        Issuer: CN = JLint Sub CA, O = MTG, C = DE
        Validity
            Not Before: Mar 27 11:10:06 2052 GMT
            Not After : Mar 27 11:10:06 2053 GMT
        Subject: CN = All Times Generalized, O = MTG, C = DE
        Subject Public Key Info:
            Public Key Algorithm: rsaEncryption
                RSA Public-Key: (2048 bit)
                Modulus:
                    00:ac:30:67:02:ad:c8:59:b0:8a:61:91:ee:be:f0:
                    6a:15:17:24:af:58:0b:3e:75:3f:ea:06:8e:ba:d9:
                    71:ce:27:29:b8:e9:e6:9c:8f:a5:5d:c4:2e:ce:02:
                    46:2a:bf:98:b6:f7:b6:a0:a7:03:12:a5:c6:ee:8d:
                    3c:4c:ea:a8:b3:71:d9:9f:ab:d6:cd:36:77:f4:36:
                    c0:b4:c0:9e:38:bf:7c:d1:ba:f3:bb:9f:2d:ad:1e:
                    2e:bd:23:01:8c:ac:f6:b0:10:69:61:b4:39:48:cc:
                    30:82:b0:6c:a0:5c:9e:11:3f:cb:0a:ab:a3:11:f2:
                    9e:c5:f2:d0:f8:93:ee:82:90:ac:bb:f9:77:76:a5:
                    b7:fe:14:8f:5d:ef:c8:93:eb:c9:1b:e3:4d:54:a2:
                    13:b0:53:f2:3e:4d:e4:bc:d5:e7:b9:a4:38:7e:9e:
                    ab:f5:e0:84:2f:b4:4e:ab:63:e5:68:c5:f5:57:76:
                    c6:88:02:f3:b9:c2:39:c0:23:41:9c:98:81:6f:df:
                    25:e8:4a:30:a8:3e:01:e4:00:16:0d:d4:8a:81:7d:
                    81:9d:c8:0a:a2:6d:e1:2e:63:28:bc:fd:05:21:40:
                    48:d3:1a:2f:bd:0a:2a:79:0b:18:00:15:e4:fc:13:
                    4e:4b:fa:5b:86:90:69:76:b7:85:62:2c:b2:fc:45:
                    8c:b1
                Exponent: 65537 (0x10001)
        X509v3 extensions:
            X509v3 Authority Key Identifier: 
                keyid:A9:1A:F1:CD:D4:EE:E9:AB:19:2F:5F:83:1B:B9:55:6D:08:C1:30:DE

            X509v3 Subject Key Identifier: 
                9B:83:5C:B1:D0:6F:0E:60:0D:75:A8:BA:AA:3D:6C:54:07:D4:9F:7E
    Signature Algorithm: sha256WithRSAEncryption
         2d:18:57:db:d0:1f:1d:c9:a1:19:76:0d:ce:e5:d3:c3:df:fc:
         46:51:e2:80:65:6e:e8:79:71:17:0d:b8:e7:5b:c2:fd:13:67:
         6f:8a:75:53:ba:79:58:44:90:a9:4f:00:95:0e:1c:1e:ce:ed:
         1d:eb:2d:93:ed:03:4f:15:bf:1e:3f:46:48:cf:7a:fa:e6:52:
         04:21:ae:34:77:94:b5:c2:04:c8:2b:e4:46:5c:f1:47:22:10:
         60:67:d6:4e:76:eb:7c:12:6d:a0:e2:13:f4:8a:6e:bc:40:6c:
         b1:db:58:82:5b:52:63:20:15:fe:8b:78:73:9d:8c:3b:bd:a9:
         2e:60:a6:8d:18:90:6d:fe:36:62:7e:42:35:90:23:e8:19:42:
         40:14:e0:4e:26:4d:68:76:0c:16:db:ae:32:65:78:63:4b:b2:
         c4:f7:7e:67:c1:09:91:d7:ef:59:6b:0b:46:34:93:23:68:00:
         ff:2f:b5:f5:b2:a5:97:6c:17:06:8d:90:a4:d9:4d:78:e1:40:
         d9:8b:0f:e6:fd:69:cc:ba:b5:d2:2b:4f:11:f1:a3:dc:6d:58:
         55:58:14:47:26:7f:e9:a5:67:aa:22:a8:1a:03:45:74:ce:9e:
         d7:86:f7:38:cc:86:7c:b8:12:53:95:8e:c2:05:7f:01:7b:1d:
         f5:2b:7e:30
-----BEGIN CERTIFICATE-----
MIIDOjCCAiKgAwIBAgINAI7GQwXRUEMmQwrB9TANBgkqhkiG9w0BAQsFADAyMRUw
EwYDVQQDDAxKTGludCBTdWIgQ0ExDDAKBgNVBAoMA01URzELMAkGA1UEBhMCREUw
IhgPMjA1MjAzMjcxMTEwMDZaGA8yMDUzMDMyNzExMTAwNlowOzEeMBwGA1UEAwwV
QWxsIFRpbWVzIEdlbmVyYWxpemVkMQwwCgYDVQQKDANNVEcxCzAJBgNVBAYTAkRF
MIIBIjANBgkqhkiG9w0BAQEFAAOCAQ8AMIIBCgKCAQEArDBnAq3IWbCKYZHuvvBq
FRckr1gLPnU/6gaOutlxzicpuOnmnI+lXcQuzgJGKr+Ytve2oKcDEqXG7o08TOqo
s3HZn6vWzTZ39DbAtMCeOL980brzu58trR4uvSMBjKz2sBBpYbQ5SMwwgrBsoFye
ET/LCqujEfKexfLQ+JPugpCsu/l3dqW3/hSPXe/Ik+vJG+NNVKITsFPyPk3kvNXn
uaQ4fp6r9eCEL7ROq2PlaMX1V3bGiALzucI5wCNBnJiBb98l6EowqD4B5AAWDdSK
gX2BncgKom3hLmMovP0FIUBI0xovvQoqeQsYABXk/BNOS/pbhpBpdreFYiyy/EWM
sQIDAQABo0IwQDAfBgNVHSMEGDAWgBSpGvHN1O7pqxkvX4MbuVVtCMEw3jAdBgNV
HQ4EFgQUm4NcsdBvDmANdai6qj1sVAfUn34wDQYJKoZIhvcNAQELBQADggEBAC0Y
V9vQHx3JoRl2Dc7l08Pf/EZR4oBlbuh5cRcNuOdbwv0TZ2+KdVO6eVhEkKlPAJUO
HB7O7R3rLZPtA08Vvx4/RkjPevrmUgQhrjR3lLXCBMgr5EZc8UciEGBn1k5263wS
baDiE/SKbrxAbLHbWIJbUmMgFf6LeHOdjDu9qS5gpo0YkG3+NmJ+QjWQI+gZQkAU
4E4mTWh2DBbbrjJleGNLssT3fmfBCZHX71lrC0Y0kyNoAP8vtfWypZdsFwaNkKTZ
TXjhQNmLD+b9acy6tdIrTxHxo9xtWFVYFEcmf+mlZ6oiqBoDRXTOnteG9zjMhny4
ElOVjsIFfwF7HfUrfjA=
-----END CERTIFICATE-----
