Certificate:
    Data:
        Version: 3 (0x2)
        Serial Number:
            a7:95:89:76:43:14:29:e6:bd:51:41:ec
        Signature Algorithm: sha256WithRSAEncryption
        Issuer: CN = JLint Sub CA, O = MTG, C = DE
        Validity
            Not Before: Mar 23 12:03:02 2022 GMT
            Not After : Jan  1 00:00:00 2055 GMT
        Subject: CN = Not After Has No Seconds, O = MTG, C = DE
        Subject Public Key Info:
            Public Key Algorithm: rsaEncryption
                RSA Public-Key: (2048 bit)
                Modulus:
                    00:9f:c6:06:57:12:3e:ca:7b:20:db:2c:a5:4b:41:
                    49:02:23:9b:86:6f:89:29:d2:b8:f3:7e:dd:3f:f5:
                    e5:8c:0f:00:81:48:70:db:82:87:f6:fe:f6:6a:98:
                    1b:f7:cc:68:95:3e:f9:d1:5c:c5:8d:0f:c3:ae:f2:
                    03:0b:a4:f3:24:c8:4c:db:49:26:10:04:aa:e6:bf:
                    44:8d:19:9f:2b:e1:2f:ef:79:5d:1c:8f:14:49:3e:
                    b6:34:07:99:32:77:99:7c:fd:d6:f6:74:c1:97:35:
                    34:9e:12:c1:85:7f:4b:7a:24:e7:6c:33:c2:ef:84:
                    2b:ad:7e:e3:50:24:46:1e:7a:a4:85:5a:a0:98:08:
                    58:c3:cd:1f:44:2e:06:89:e6:81:b4:04:73:ea:3b:
                    92:61:85:6d:fa:d0:8c:4e:b3:c1:77:d5:9f:6e:43:
                    5b:ca:59:3b:40:3c:95:3d:bf:f2:fb:57:00:f1:c2:
                    f4:df:94:a8:aa:24:52:ea:25:55:5b:ee:7c:65:5f:
                    5b:c2:f4:36:a9:cd:b3:fe:41:bf:a0:e7:d7:6d:93:
                    9e:95:d0:cb:a1:e6:29:5e:08:a2:0b:6a:31:25:aa:
                    d0:29:4c:c4:33:de:a8:d8:2f:3b:09:2e:87:a8:07:
                    54:29:ec:ac:b3:5c:0e:18:cd:0b:0e:be:10:6a:3d:
                    e6:37
                Exponent: 65537 (0x10001)
        X509v3 extensions:
            X509v3 Authority Key Identifier: 
                keyid:DC:7C:D5:2A:73:FD:11:34:93:5A:A0:66:F6:A9:AD:7C:C6:23:43:22

            X509v3 Subject Key Identifier: 
                3C:AF:34:62:95:18:E5:6B:27:2A:58:27:84:5A:04:FE:0B:3A:4C:24
    Signature Algorithm: sha256WithRSAEncryption
         a2:6b:75:0e:cb:ec:75:ee:90:b6:3c:bc:b5:95:32:f3:af:be:
         84:b2:7b:7a:62:44:ed:81:47:15:69:6c:36:57:83:84:e8:8e:
         eb:60:66:43:95:7a:20:21:89:ab:03:ea:0b:af:fe:fc:12:08:
         95:fa:bd:46:4e:7f:21:39:b6:c8:1f:08:f4:5d:e5:d8:1e:f8:
         ec:ba:2a:e4:6d:9e:45:72:19:5a:88:f0:63:15:1a:f4:63:ce:
         f8:60:d5:53:bb:9f:4b:1d:49:13:cc:8b:a8:6e:04:af:68:a6:
         05:24:35:a5:a4:96:44:7e:cd:aa:cf:42:4b:f7:a3:aa:dc:b3:
         9b:2c:79:91:d8:33:38:c2:62:a3:a5:5f:66:de:de:d0:90:d9:
         4f:4d:a4:2c:7a:4c:c1:6d:1c:3e:4f:04:d8:d6:f7:11:be:74:
         9e:2b:be:2a:25:eb:78:9f:d6:ce:8b:44:81:54:5c:41:b8:a1:
         4a:ce:aa:ab:fa:d6:89:75:54:48:ae:b9:52:d1:08:51:c7:f0:
         aa:0a:17:9c:aa:b0:32:68:6b:8e:14:cc:94:f4:9b:41:51:0e:
         b5:67:9f:26:33:3e:4f:30:4b:76:d2:00:49:da:fa:13:44:a0:
         1f:bc:d5:b2:3e:f5:b7:c1:8f:bc:e6:f5:77:c9:64:ce:7d:2f:
         f2:05:8f:39
-----BEGIN CERTIFICATE-----
MIIDOzCCAiOgAwIBAgINAKeViXZDFCnmvVFB7DANBgkqhkiG9w0BAQsFADAyMRUw
EwYDVQQDDAxKTGludCBTdWIgQ0ExDDAKBgNVBAoMA01URzELMAkGA1UEBhMCREUw
IBcNMjIwMzIzMTIwMzAyWhgPMjA1NTAxMDEwMDAwMDBaMD4xITAfBgNVBAMMGE5v
dCBBZnRlciBIYXMgTm8gU2Vjb25kczEMMAoGA1UECgwDTVRHMQswCQYDVQQGEwJE
RTCCASIwDQYJKoZIhvcNAQEBBQADggEPADCCAQoCggEBAJ/GBlcSPsp7INsspUtB
SQIjm4ZviSnSuPN+3T/15YwPAIFIcNuCh/b+9mqYG/fMaJU++dFcxY0Pw67yAwuk
8yTITNtJJhAEqua/RI0ZnyvhL+95XRyPFEk+tjQHmTJ3mXz91vZ0wZc1NJ4SwYV/
S3ok52wzwu+EK61+41AkRh56pIVaoJgIWMPNH0QuBonmgbQEc+o7kmGFbfrQjE6z
wXfVn25DW8pZO0A8lT2/8vtXAPHC9N+UqKokUuolVVvufGVfW8L0NqnNs/5Bv6Dn
122TnpXQy6HmKV4IogtqMSWq0ClMxDPeqNgvOwkuh6gHVCnsrLNcDhjNCw6+EGo9
5jcCAwEAAaNCMEAwHwYDVR0jBBgwFoAU3HzVKnP9ETSTWqBm9qmtfMYjQyIwHQYD
VR0OBBYEFDyvNGKVGOVrJypYJ4RaBP4LOkwkMA0GCSqGSIb3DQEBCwUAA4IBAQCi
a3UOy+x17pC2PLy1lTLzr76Esnt6YkTtgUcVaWw2V4OE6I7rYGZDlXogIYmrA+oL
r/78EgiV+r1GTn8hObbIHwj0XeXYHvjsuirkbZ5FchlaiPBjFRr0Y874YNVTu59L
HUkTzIuobgSvaKYFJDWlpJZEfs2qz0JL96Oq3LObLHmR2DM4wmKjpV9m3t7QkNlP
TaQsekzBbRw+TwTY1vcRvnSeK74qJet4n9bOi0SBVFxBuKFKzqqr+taJdVRIrrlS
0QhRx/CqChecqrAyaGuOFMyU9JtBUQ61Z58mMz5PMEt20gBJ2voTRKAfvNWyPvW3
wY+85vV3yWTOfS/yBY85
-----END CERTIFICATE-----
